; Function Attrs: mustprogress nounwind uwtable
define hidden void @_ZN15ClassLoaderData17ChunkedHandleListD2Ev(ptr noundef nonnull align 8 dereferenceable(8) %0) unnamed_addr #0 align 2 {
  %2 = load volatile ptr, ptr %0, align 8
  %.not5 = icmp eq ptr %2, null
  br i1 %.not5, label %._crit_edge, label %.lr.ph

.lr.ph:                                           ; preds = %1, %.lr.ph
  %.06 = phi ptr [ %4, %.lr.ph ], [ %2, %1 ]
  %3 = getelementptr inbounds i8, ptr %.06, i64 264
  %4 = load ptr, ptr %3, align 8
  tail call void @_Z8FreeHeapPv(ptr noundef nonnull %.06) #16
  %.not = icmp eq ptr %4, null
  br i1 %.not, label %._crit_edge, label %.lr.ph, !llvm.loop !11

._crit_edge:                                      ; preds = %.lr.ph, %1
  ret void
}